target datalayout = "e-m:e-p270:32:32-p271:32:32-p272:64:64-i64:64-i128:128-f80:128-n8:16:32:64-S128"
target triple = "x86_64-pc-linux-gnu"

%struct.AVFormatContext = type { ptr, ptr, ptr, ptr, ptr, i32, i32, ptr, i32, ptr, i32, ptr, ptr, i64, i64, i64, i32, i32, i32, i64, i64, ptr, i32, i32, ptr, i32, i32, i32, i32, ptr, i64, i32, i32, %struct.AVIOInterruptCB, i32, i32, i32, i32, i64, i32, i32, i32, i32, i32, i32, i32, i32, i32, i32, i32, i32, i64, i32, i32, i32, i32, i32, ptr, ptr, ptr, ptr, i32, ptr, ptr, ptr, ptr, i32, ptr, ptr, i64, ptr, ptr, ptr, i64 }
%struct.AVIOInterruptCB = type { ptr, ptr }
%struct.AVStream = type { ptr, i32, i32, ptr, ptr, %struct.AVRational, i64, i64, i64, i32, i32, %struct.AVRational, ptr, %struct.AVRational, %struct.AVPacket, i32, %struct.AVRational, i32 }
%struct.AVPacket = type { ptr, i64, i64, ptr, i32, i32, i32, ptr, i32, i64, i64, ptr, ptr, %struct.AVRational }
%struct.AVRational = type { i32, i32 }
%struct.AVCodecParameters = type { i32, i32, i32, ptr, i32, ptr, i32, i32, i64, i32, i32, i32, i32, i32, i32, %struct.AVRational, %struct.AVRational, i32, i32, i32, i32, i32, i32, i32, %struct.AVChannelLayout, i32, i32, i32, i32, i32, i32 }
%struct.AVChannelLayout = type { i32, i32, %union.anon, ptr }
%union.anon = type { i64 }
%struct.voc_enc_context = type { i32 }

; Function Attrs: nounwind uwtable
define internal i32 @voc_write_packet(ptr noundef %0, ptr noundef %1) #0 {
  %3 = alloca ptr, align 8
  %4 = alloca ptr, align 8
  %5 = alloca ptr, align 8
  %6 = alloca ptr, align 8
  %7 = alloca ptr, align 8
  store ptr %0, ptr %3, align 8, !tbaa !4
  store ptr %1, ptr %4, align 8, !tbaa !45
  call void @llvm.lifetime.start.p0(i64 8, ptr %5) #3
  %8 = load ptr, ptr %3, align 8, !tbaa !4
  %9 = getelementptr inbounds nuw %struct.AVFormatContext, ptr %8, i32 0, i32 3
  %10 = load ptr, ptr %9, align 8, !tbaa !47
  store ptr %10, ptr %5, align 8, !tbaa !48
  call void @llvm.lifetime.start.p0(i64 8, ptr %6) #3
  %11 = load ptr, ptr %3, align 8, !tbaa !4
  %12 = getelementptr inbounds nuw %struct.AVFormatContext, ptr %11, i32 0, i32 7
  %13 = load ptr, ptr %12, align 8, !tbaa !27
  %14 = getelementptr inbounds ptr, ptr %13, i64 0
  %15 = load ptr, ptr %14, align 8, !tbaa !28
  %16 = getelementptr inbounds nuw %struct.AVStream, ptr %15, i32 0, i32 3
  %17 = load ptr, ptr %16, align 8, !tbaa !30
  store ptr %17, ptr %6, align 8, !tbaa !37
  call void @llvm.lifetime.start.p0(i64 8, ptr %7) #3
  %18 = load ptr, ptr %3, align 8, !tbaa !4
  %19 = getelementptr inbounds nuw %struct.AVFormatContext, ptr %18, i32 0, i32 4
  %20 = load ptr, ptr %19, align 8, !tbaa !9
  store ptr %20, ptr %7, align 8, !tbaa !26
  %21 = load ptr, ptr %5, align 8, !tbaa !48
  %22 = getelementptr inbounds nuw %struct.voc_enc_context, ptr %21, i32 0, i32 0
  %23 = load i32, ptr %22, align 4, !tbaa !50
  %24 = icmp ne i32 %23, 0
  br i1 %24, label %126, label %25

25:                                               ; preds = %2
  %26 = load ptr, ptr %6, align 8, !tbaa !37
  %27 = getelementptr inbounds nuw %struct.AVCodecParameters, ptr %26, i32 0, i32 2
  %28 = load i32, ptr %27, align 8, !tbaa !43
  %29 = icmp ugt i32 %28, 3
  br i1 %29, label %30, label %55

30:                                               ; preds = %25
  %31 = load ptr, ptr %7, align 8, !tbaa !26
  call void @avio_w8(ptr noundef %31, i32 noundef 9)
  %32 = load ptr, ptr %7, align 8, !tbaa !26
  %33 = load ptr, ptr %4, align 8, !tbaa !45
  %34 = getelementptr inbounds nuw %struct.AVPacket, ptr %33, i32 0, i32 4
  %35 = load i32, ptr %34, align 8, !tbaa !52
  %36 = add nsw i32 %35, 12
  call void @avio_wl24(ptr noundef %32, i32 noundef %36)
  %37 = load ptr, ptr %7, align 8, !tbaa !26
  %38 = load ptr, ptr %6, align 8, !tbaa !37
  %39 = getelementptr inbounds nuw %struct.AVCodecParameters, ptr %38, i32 0, i32 25
  %40 = load i32, ptr %39, align 8, !tbaa !53
  call void @avio_wl32(ptr noundef %37, i32 noundef %40)
  %41 = load ptr, ptr %7, align 8, !tbaa !26
  %42 = load ptr, ptr %6, align 8, !tbaa !37
  %43 = getelementptr inbounds nuw %struct.AVCodecParameters, ptr %42, i32 0, i32 9
  %44 = load i32, ptr %43, align 8, !tbaa !54
  call void @avio_w8(ptr noundef %41, i32 noundef %44)
  %45 = load ptr, ptr %7, align 8, !tbaa !26
  %46 = load ptr, ptr %6, align 8, !tbaa !37
  %47 = getelementptr inbounds nuw %struct.AVCodecParameters, ptr %46, i32 0, i32 24
  %48 = getelementptr inbounds nuw %struct.AVChannelLayout, ptr %47, i32 0, i32 1
  %49 = load i32, ptr %48, align 4, !tbaa !55
  call void @avio_w8(ptr noundef %45, i32 noundef %49)
  %50 = load ptr, ptr %7, align 8, !tbaa !26
  %51 = load ptr, ptr %6, align 8, !tbaa !37
  %52 = getelementptr inbounds nuw %struct.AVCodecParameters, ptr %51, i32 0, i32 2
  %53 = load i32, ptr %52, align 8, !tbaa !43
  call void @avio_wl16(ptr noundef %50, i32 noundef %53)
  %54 = load ptr, ptr %7, align 8, !tbaa !26
  call void @avio_wl32(ptr noundef %54, i32 noundef 0)
  br label %123

55:                                               ; preds = %25
  %56 = load ptr, ptr %3, align 8, !tbaa !4
  %57 = getelementptr inbounds nuw %struct.AVFormatContext, ptr %56, i32 0, i32 7
  %58 = load ptr, ptr %57, align 8, !tbaa !27
  %59 = getelementptr inbounds ptr, ptr %58, i64 0
  %60 = load ptr, ptr %59, align 8, !tbaa !28
  %61 = getelementptr inbounds nuw %struct.AVStream, ptr %60, i32 0, i32 3
  %62 = load ptr, ptr %61, align 8, !tbaa !30
  %63 = getelementptr inbounds nuw %struct.AVCodecParameters, ptr %62, i32 0, i32 24
  %64 = getelementptr inbounds nuw %struct.AVChannelLayout, ptr %63, i32 0, i32 1
  %65 = load i32, ptr %64, align 4, !tbaa !55
  %66 = icmp sgt i32 %65, 1
  br i1 %66, label %67, label %101

67:                                               ; preds = %55
  %68 = load ptr, ptr %7, align 8, !tbaa !26
  call void @avio_w8(ptr noundef %68, i32 noundef 8)
  %69 = load ptr, ptr %7, align 8, !tbaa !26
  call void @avio_wl24(ptr noundef %69, i32 noundef 4)
  %70 = load ptr, ptr %7, align 8, !tbaa !26
  %71 = load ptr, ptr %6, align 8, !tbaa !37
  %72 = getelementptr inbounds nuw %struct.AVCodecParameters, ptr %71, i32 0, i32 25
  %73 = load i32, ptr %72, align 8, !tbaa !53
  %74 = load ptr, ptr %6, align 8, !tbaa !37
  %75 = getelementptr inbounds nuw %struct.AVCodecParameters, ptr %74, i32 0, i32 24
  %76 = getelementptr inbounds nuw %struct.AVChannelLayout, ptr %75, i32 0, i32 1
  %77 = load i32, ptr %76, align 4, !tbaa !55
  %78 = mul nsw i32 %73, %77
  %79 = sdiv i32 %78, 2
  %80 = add nsw i32 256000000, %79
  %81 = load ptr, ptr %6, align 8, !tbaa !37
  %82 = getelementptr inbounds nuw %struct.AVCodecParameters, ptr %81, i32 0, i32 25
  %83 = load i32, ptr %82, align 8, !tbaa !53
  %84 = load ptr, ptr %6, align 8, !tbaa !37
  %85 = getelementptr inbounds nuw %struct.AVCodecParameters, ptr %84, i32 0, i32 24
  %86 = getelementptr inbounds nuw %struct.AVChannelLayout, ptr %85, i32 0, i32 1
  %87 = load i32, ptr %86, align 4, !tbaa !55
  %88 = mul nsw i32 %83, %87
  %89 = sdiv i32 %80, %88
  %90 = sub nsw i32 65536, %89
  call void @avio_wl16(ptr noundef %70, i32 noundef %90)
  %91 = load ptr, ptr %7, align 8, !tbaa !26
  %92 = load ptr, ptr %6, align 8, !tbaa !37
  %93 = getelementptr inbounds nuw %struct.AVCodecParameters, ptr %92, i32 0, i32 2
  %94 = load i32, ptr %93, align 8, !tbaa !43
  call void @avio_w8(ptr noundef %91, i32 noundef %94)
  %95 = load ptr, ptr %7, align 8, !tbaa !26
  %96 = load ptr, ptr %6, align 8, !tbaa !37
  %97 = getelementptr inbounds nuw %struct.AVCodecParameters, ptr %96, i32 0, i32 24
  %98 = getelementptr inbounds nuw %struct.AVChannelLayout, ptr %97, i32 0, i32 1
  %99 = load i32, ptr %98, align 4, !tbaa !55
  %100 = sub nsw i32 %99, 1
  call void @avio_w8(ptr noundef %95, i32 noundef %100)
  br label %101

101:                                              ; preds = %67, %55
  %102 = load ptr, ptr %7, align 8, !tbaa !26
  call void @avio_w8(ptr noundef %102, i32 noundef 1)
  %103 = load ptr, ptr %7, align 8, !tbaa !26
  %104 = load ptr, ptr %4, align 8, !tbaa !45
  %105 = getelementptr inbounds nuw %struct.AVPacket, ptr %104, i32 0, i32 4
  %106 = load i32, ptr %105, align 8, !tbaa !52
  %107 = add nsw i32 %106, 2
  call void @avio_wl24(ptr noundef %103, i32 noundef %107)
  %108 = load ptr, ptr %7, align 8, !tbaa !26
  %109 = load ptr, ptr %6, align 8, !tbaa !37
  %110 = getelementptr inbounds nuw %struct.AVCodecParameters, ptr %109, i32 0, i32 25
  %111 = load i32, ptr %110, align 8, !tbaa !53
  %112 = sdiv i32 %111, 2
  %113 = add nsw i32 1000000, %112
  %114 = load ptr, ptr %6, align 8, !tbaa !37
  %115 = getelementptr inbounds nuw %struct.AVCodecParameters, ptr %114, i32 0, i32 25
  %116 = load i32, ptr %115, align 8, !tbaa !53
  %117 = sdiv i32 %113, %116
  %118 = sub nsw i32 256, %117
  call void @avio_w8(ptr noundef %108, i32 noundef %118)
  %119 = load ptr, ptr %7, align 8, !tbaa !26
  %120 = load ptr, ptr %6, align 8, !tbaa !37
  %121 = getelementptr inbounds nuw %struct.AVCodecParameters, ptr %120, i32 0, i32 2
  %122 = load i32, ptr %121, align 8, !tbaa !43
  call void @avio_w8(ptr noundef %119, i32 noundef %122)
  br label %123

123:                                              ; preds = %101, %30
  %124 = load ptr, ptr %5, align 8, !tbaa !48
  %125 = getelementptr inbounds nuw %struct.voc_enc_context, ptr %124, i32 0, i32 0
  store i32 1, ptr %125, align 4, !tbaa !50
  br label %132

126:                                              ; preds = %2
  %127 = load ptr, ptr %7, align 8, !tbaa !26
  call void @avio_w8(ptr noundef %127, i32 noundef 2)
  %128 = load ptr, ptr %7, align 8, !tbaa !26
  %129 = load ptr, ptr %4, align 8, !tbaa !45
  %130 = getelementptr inbounds nuw %struct.AVPacket, ptr %129, i32 0, i32 4
  %131 = load i32, ptr %130, align 8, !tbaa !52
  call void @avio_wl24(ptr noundef %128, i32 noundef %131)
  br label %132

132:                                              ; preds = %126, %123
  %133 = load ptr, ptr %7, align 8, !tbaa !26
  %134 = load ptr, ptr %4, align 8, !tbaa !45
  %135 = getelementptr inbounds nuw %struct.AVPacket, ptr %134, i32 0, i32 3
  %136 = load ptr, ptr %135, align 8, !tbaa !56
  %137 = load ptr, ptr %4, align 8, !tbaa !45
  %138 = getelementptr inbounds nuw %struct.AVPacket, ptr %137, i32 0, i32 4
  %139 = load i32, ptr %138, align 8, !tbaa !52
  call void @avio_write(ptr noundef %133, ptr noundef %136, i32 noundef %139)
  call void @llvm.lifetime.end.p0(i64 8, ptr %7) #3
  call void @llvm.lifetime.end.p0(i64 8, ptr %6) #3
  call void @llvm.lifetime.end.p0(i64 8, ptr %5) #3
  ret i32 0
}