; Function Attrs: nounwind uwtable
define internal noundef i32 @voc_write_packet(ptr noundef readonly captures(none) %0, ptr noundef readonly captures(none) %1) #0 {
  %3 = getelementptr inbounds nuw i8, ptr %0, i64 24
  %4 = load ptr, ptr %3, align 8, !tbaa !40
  %5 = getelementptr inbounds nuw i8, ptr %0, i64 48
  %6 = load ptr, ptr %5, align 8, !tbaa !24
  %7 = load ptr, ptr %6, align 8, !tbaa !25
  %8 = getelementptr inbounds nuw i8, ptr %7, i64 16
  %9 = load ptr, ptr %8, align 8, !tbaa !27
  %10 = getelementptr inbounds nuw i8, ptr %0, i64 32
  %11 = load ptr, ptr %10, align 8, !tbaa !4
  %12 = load i32, ptr %4, align 4, !tbaa !41
  %.not = icmp eq i32 %12, 0
  br i1 %.not, label %13, label %56

13:                                               ; preds = %2
  %14 = getelementptr inbounds nuw i8, ptr %9, i64 8
  %15 = load i32, ptr %14, align 8, !tbaa !38
  %16 = icmp ugt i32 %15, 3
  br i1 %16, label %17, label %28

17:                                               ; preds = %13
  tail call void @avio_w8(ptr noundef %11, i32 noundef 9) #2
  %18 = getelementptr inbounds nuw i8, ptr %1, i64 32
  %19 = load i32, ptr %18, align 8, !tbaa !43
  %20 = add nsw i32 %19, 12
  tail call void @avio_wl24(ptr noundef %11, i32 noundef %20) #2
  %21 = getelementptr inbounds nuw i8, ptr %9, i64 152
  %22 = load i32, ptr %21, align 8, !tbaa !44
  tail call void @avio_wl32(ptr noundef %11, i32 noundef %22) #2
  %23 = getelementptr inbounds nuw i8, ptr %9, i64 56
  %24 = load i32, ptr %23, align 8, !tbaa !45
  tail call void @avio_w8(ptr noundef %11, i32 noundef %24) #2
  %25 = getelementptr inbounds nuw i8, ptr %9, i64 132
  %26 = load i32, ptr %25, align 4, !tbaa !46
  tail call void @avio_w8(ptr noundef %11, i32 noundef %26) #2
  %27 = load i32, ptr %14, align 8, !tbaa !38
  tail call void @avio_wl16(ptr noundef %11, i32 noundef %27) #2
  tail call void @avio_wl32(ptr noundef %11, i32 noundef 0) #2
  br label %55

28:                                               ; preds = %13
  %29 = getelementptr inbounds nuw i8, ptr %9, i64 132
  %30 = load i32, ptr %29, align 4, !tbaa !46
  %31 = icmp sgt i32 %30, 1
  br i1 %31, label %32, label %44

32:                                               ; preds = %28
  tail call void @avio_w8(ptr noundef %11, i32 noundef 8) #2
  tail call void @avio_wl24(ptr noundef %11, i32 noundef 4) #2
  %33 = getelementptr inbounds nuw i8, ptr %9, i64 152
  %34 = load i32, ptr %33, align 8, !tbaa !44
  %35 = load i32, ptr %29, align 4, !tbaa !46
  %36 = mul nsw i32 %35, %34
  %37 = sdiv i32 %36, 2
  %38 = add nsw i32 %37, 256000000
  %39 = sdiv i32 %38, %36
  %40 = sub nsw i32 65536, %39
  tail call void @avio_wl16(ptr noundef %11, i32 noundef %40) #2
  %41 = load i32, ptr %14, align 8, !tbaa !38
  tail call void @avio_w8(ptr noundef %11, i32 noundef %41) #2
  %42 = load i32, ptr %29, align 4, !tbaa !46
  %43 = add nsw i32 %42, -1
  tail call void @avio_w8(ptr noundef %11, i32 noundef %43) #2
  br label %44

44:                                               ; preds = %32, %28
  tail call void @avio_w8(ptr noundef %11, i32 noundef 1) #2
  %45 = getelementptr inbounds nuw i8, ptr %1, i64 32
  %46 = load i32, ptr %45, align 8, !tbaa !43
  %47 = add nsw i32 %46, 2
  tail call void @avio_wl24(ptr noundef %11, i32 noundef %47) #2
  %48 = getelementptr inbounds nuw i8, ptr %9, i64 152
  %49 = load i32, ptr %48, align 8, !tbaa !44
  %50 = sdiv i32 %49, 2
  %51 = add nsw i32 %50, 1000000
  %52 = sdiv i32 %51, %49
  %53 = sub nsw i32 256, %52
  tail call void @avio_w8(ptr noundef %11, i32 noundef %53) #2
  %54 = load i32, ptr %14, align 8, !tbaa !38
  tail call void @avio_w8(ptr noundef %11, i32 noundef %54) #2
  br label %55

55:                                               ; preds = %44, %17
  store i32 1, ptr %4, align 4, !tbaa !41
  br label %59

56:                                               ; preds = %2
  tail call void @avio_w8(ptr noundef %11, i32 noundef 2) #2
  %57 = getelementptr inbounds nuw i8, ptr %1, i64 32
  %58 = load i32, ptr %57, align 8, !tbaa !43
  tail call void @avio_wl24(ptr noundef %11, i32 noundef %58) #2
  br label %59

59:                                               ; preds = %56, %55
  %60 = getelementptr inbounds nuw i8, ptr %1, i64 24
  %61 = load ptr, ptr %60, align 8, !tbaa !47
  %62 = getelementptr inbounds nuw i8, ptr %1, i64 32
  %63 = load i32, ptr %62, align 8, !tbaa !43
  tail call void @avio_write(ptr noundef %11, ptr noundef %61, i32 noundef %63) #2
  ret i32 0
}